; ModuleID = 'source-C-CXX/11/504.cpp'
source_filename = "source-C-CXX/11/504.cpp"
target datalayout = "e-m:e-p270:32:32-p271:32:32-p272:64:64-i64:64-f80:128-n8:16:32:64-S128"
target triple = "x86_64-pc-linux-gnu"

%"class.std::ios_base::Init" = type { i8 }
%"class.std::basic_istream" = type { i32 (...)**, i64, %"class.std::basic_ios" }
%"class.std::basic_ios" = type { %"class.std::ios_base", %"class.std::basic_ostream"*, i8, i8, %"class.std::basic_streambuf"*, %"class.std::ctype"*, %"class.std::num_put"*, %"class.std::num_get"* }
%"class.std::ios_base" = type { i32 (...)**, i64, i64, i32, i32, i32, %"struct.std::ios_base::_Callback_list"*, %"struct.std::ios_base::_Words", [8 x %"struct.std::ios_base::_Words"], i32, %"struct.std::ios_base::_Words"*, %"class.std::locale" }
%"struct.std::ios_base::_Callback_list" = type { %"struct.std::ios_base::_Callback_list"*, void (i32, %"class.std::ios_base"*, i32)*, i32, i32 }
%"struct.std::ios_base::_Words" = type { i8*, i64 }
%"class.std::locale" = type { %"class.std::locale::_Impl"* }
%"class.std::locale::_Impl" = type { i32, %"class.std::locale::facet"**, i64, %"class.std::locale::facet"**, i8** }
%"class.std::locale::facet" = type <{ i32 (...)**, i32, [4 x i8] }>
%"class.std::basic_ostream" = type { i32 (...)**, %"class.std::basic_ios" }
%"class.std::basic_streambuf" = type { i32 (...)**, i8*, i8*, i8*, i8*, i8*, i8*, %"class.std::locale" }
%"class.std::ctype" = type <{ %"class.std::locale::facet.base", [4 x i8], %struct.__locale_struct*, i8, [7 x i8], i32*, i32*, i16*, i8, [256 x i8], [256 x i8], i8, [6 x i8] }>
%"class.std::locale::facet.base" = type <{ i32 (...)**, i32 }>
%struct.__locale_struct = type { [13 x %struct.__locale_data*], i16*, i32*, i32*, [13 x i8*] }
%struct.__locale_data = type opaque
%"class.std::num_put" = type { %"class.std::locale::facet.base", [4 x i8] }
%"class.std::num_get" = type { %"class.std::locale::facet.base", [4 x i8] }

@_ZStL8__ioinit = internal global %"class.std::ios_base::Init" zeroinitializer, align 1
@__dso_handle = external hidden global i8
@_ZSt3cin = external global %"class.std::basic_istream", align 8
@_ZSt4cout = external global %"class.std::basic_ostream", align 8
@llvm.global_ctors = appending global [1 x { i32, void ()*, i8* }] [{ i32, void ()*, i8* } { i32 65535, void ()* @_GLOBAL__sub_I_504.cpp, i8* null }]

declare void @_ZNSt8ios_base4InitC1Ev(%"class.std::ios_base::Init"* nonnull align 1 dereferenceable(1)) unnamed_addr #0

; Function Attrs: nounwind
declare void @_ZNSt8ios_base4InitD1Ev(%"class.std::ios_base::Init"* nonnull align 1 dereferenceable(1)) unnamed_addr #1

; Function Attrs: nofree nounwind
declare i32 @__cxa_atexit(void (i8*)*, i8*, i8*) local_unnamed_addr #2

; Function Attrs: mustprogress norecurse sspstrong uwtable
define dso_local i32 @main() local_unnamed_addr #3 {
  %1 = alloca [20 x i32], align 16
  %2 = bitcast [20 x i32]* %1 to i8*
  call void @llvm.lifetime.start.p0i8(i64 80, i8* nonnull %2) #8
  %3 = getelementptr inbounds [20 x i32], [20 x i32]* %1, i64 0, i64 0
  br label %4

4:                                                ; preds = %11, %0
  %5 = phi i64 [ 0, %0 ], [ %12, %11 ]
  %6 = getelementptr inbounds [20 x i32], [20 x i32]* %1, i64 0, i64 %5
  %7 = call nonnull align 8 dereferenceable(16) %"class.std::basic_istream"* @_ZNSirsERi(%"class.std::basic_istream"* nonnull align 8 dereferenceable(16) @_ZSt3cin, i32* nonnull align 4 dereferenceable(4) %6)
  %8 = load i32, i32* %6, align 4, !tbaa !5
  %9 = icmp eq i32 %8, 0
  %10 = add nuw i64 %5, 1
  br i1 %9, label %13, label %11

11:                                               ; preds = %4, %128
  %12 = phi i64 [ %10, %4 ], [ 0, %128 ]
  br label %4, !llvm.loop !9

13:                                               ; preds = %4
  %14 = load i32, i32* %3, align 16, !tbaa !5
  %15 = icmp eq i32 %14, -1
  br i1 %15, label %132, label %16

16:                                               ; preds = %13
  %17 = and i64 %5, 4294967295
  %18 = add i64 %5, 1
  %19 = and i64 %18, 4294967295
  br label %20

20:                                               ; preds = %16, %97
  %21 = phi i64 [ 0, %16 ], [ %99, %97 ]
  %22 = phi i32 [ 0, %16 ], [ %98, %97 ]
  %23 = xor i64 %21, -1
  %24 = add nsw i64 %17, %23
  %25 = icmp ult i64 %21, %17
  br i1 %25, label %26, label %97

26:                                               ; preds = %20
  %27 = getelementptr inbounds [20 x i32], [20 x i32]* %1, i64 0, i64 %21
  %28 = load i32, i32* %27, align 4, !tbaa !5
  %29 = shl nsw i32 %28, 1
  %30 = icmp eq i32 %28, %29
  %31 = shl nsw i32 %28, 1
  %32 = icmp eq i32 %28, %31
  %33 = select i1 %30, i1 true, i1 %32
  %34 = zext i1 %33 to i32
  %35 = add nsw i32 %22, %34
  %36 = add nuw nsw i64 %21, 1
  %37 = icmp eq i64 %36, %17
  br i1 %37, label %97, label %38, !llvm.loop !11

38:                                               ; preds = %26
  %39 = icmp ult i64 %24, 8
  br i1 %39, label %81, label %40

40:                                               ; preds = %38
  %41 = and i64 %24, -8
  %42 = add i64 %36, %41
  %43 = insertelement <4 x i32> <i32 poison, i32 0, i32 0, i32 0>, i32 %35, i32 0
  %44 = insertelement <4 x i32> poison, i32 %29, i32 0
  %45 = shufflevector <4 x i32> %44, <4 x i32> poison, <4 x i32> zeroinitializer
  %46 = insertelement <4 x i32> poison, i32 %29, i32 0
  %47 = shufflevector <4 x i32> %46, <4 x i32> poison, <4 x i32> zeroinitializer
  %48 = insertelement <4 x i32> poison, i32 %28, i32 0
  %49 = shufflevector <4 x i32> %48, <4 x i32> poison, <4 x i32> zeroinitializer
  %50 = insertelement <4 x i32> poison, i32 %28, i32 0
  %51 = shufflevector <4 x i32> %50, <4 x i32> poison, <4 x i32> zeroinitializer
  br label %52

52:                                               ; preds = %52, %40
  %53 = phi i64 [ 0, %40 ], [ %75, %52 ]
  %54 = phi <4 x i32> [ %43, %40 ], [ %73, %52 ]
  %55 = phi <4 x i32> [ zeroinitializer, %40 ], [ %74, %52 ]
  %56 = add i64 %36, %53
  %57 = getelementptr inbounds [20 x i32], [20 x i32]* %1, i64 0, i64 %56
  %58 = bitcast i32* %57 to <4 x i32>*
  %59 = load <4 x i32>, <4 x i32>* %58, align 4, !tbaa !5
  %60 = getelementptr inbounds i32, i32* %57, i64 4
  %61 = bitcast i32* %60 to <4 x i32>*
  %62 = load <4 x i32>, <4 x i32>* %61, align 4, !tbaa !5
  %63 = icmp eq <4 x i32> %59, %45
  %64 = icmp eq <4 x i32> %62, %47
  %65 = shl nsw <4 x i32> %59, <i32 1, i32 1, i32 1, i32 1>
  %66 = shl nsw <4 x i32> %62, <i32 1, i32 1, i32 1, i32 1>
  %67 = icmp eq <4 x i32> %49, %65
  %68 = icmp eq <4 x i32> %51, %66
  %69 = select <4 x i1> %63, <4 x i1> <i1 true, i1 true, i1 true, i1 true>, <4 x i1> %67
  %70 = select <4 x i1> %64, <4 x i1> <i1 true, i1 true, i1 true, i1 true>, <4 x i1> %68
  %71 = zext <4 x i1> %69 to <4 x i32>
  %72 = zext <4 x i1> %70 to <4 x i32>
  %73 = add <4 x i32> %54, %71
  %74 = add <4 x i32> %55, %72
  %75 = add nuw i64 %53, 8
  %76 = icmp eq i64 %75, %41
  br i1 %76, label %77, label %52, !llvm.loop !12

77:                                               ; preds = %52
  %78 = add <4 x i32> %74, %73
  %79 = call i32 @llvm.vector.reduce.add.v4i32(<4 x i32> %78)
  %80 = icmp eq i64 %24, %41
  br i1 %80, label %97, label %81

81:                                               ; preds = %38, %77
  %82 = phi i64 [ %36, %38 ], [ %42, %77 ]
  %83 = phi i32 [ %35, %38 ], [ %79, %77 ]
  br label %84

84:                                               ; preds = %81, %84
  %85 = phi i64 [ %95, %84 ], [ %82, %81 ]
  %86 = phi i32 [ %94, %84 ], [ %83, %81 ]
  %87 = getelementptr inbounds [20 x i32], [20 x i32]* %1, i64 0, i64 %85
  %88 = load i32, i32* %87, align 4, !tbaa !5
  %89 = icmp eq i32 %88, %29
  %90 = shl nsw i32 %88, 1
  %91 = icmp eq i32 %28, %90
  %92 = select i1 %89, i1 true, i1 %91
  %93 = zext i1 %92 to i32
  %94 = add nsw i32 %86, %93
  %95 = add nuw nsw i64 %85, 1
  %96 = icmp eq i64 %95, %17
  br i1 %96, label %97, label %84, !llvm.loop !14

97:                                               ; preds = %84, %26, %77, %20
  %98 = phi i32 [ %22, %20 ], [ %35, %26 ], [ %79, %77 ], [ %94, %84 ]
  %99 = add nuw nsw i64 %21, 1
  %100 = icmp eq i64 %99, %19
  br i1 %100, label %101, label %20, !llvm.loop !16

101:                                              ; preds = %97
  %102 = call nonnull align 8 dereferenceable(8) %"class.std::basic_ostream"* @_ZNSolsEi(%"class.std::basic_ostream"* nonnull align 8 dereferenceable(8) @_ZSt4cout, i32 %98)
  %103 = bitcast %"class.std::basic_ostream"* %102 to i8**
  %104 = load i8*, i8** %103, align 8, !tbaa !17
  %105 = getelementptr i8, i8* %104, i64 -24
  %106 = bitcast i8* %105 to i64*
  %107 = load i64, i64* %106, align 8
  %108 = bitcast %"class.std::basic_ostream"* %102 to i8*
  %109 = add nsw i64 %107, 240
  %110 = getelementptr inbounds i8, i8* %108, i64 %109
  %111 = bitcast i8* %110 to %"class.std::ctype"**
  %112 = load %"class.std::ctype"*, %"class.std::ctype"** %111, align 8, !tbaa !19
  %113 = icmp eq %"class.std::ctype"* %112, null
  br i1 %113, label %114, label %115

114:                                              ; preds = %101
  call void @_ZSt16__throw_bad_castv() #9
  unreachable

115:                                              ; preds = %101
  %116 = getelementptr inbounds %"class.std::ctype", %"class.std::ctype"* %112, i64 0, i32 8
  %117 = load i8, i8* %116, align 8, !tbaa !23
  %118 = icmp eq i8 %117, 0
  br i1 %118, label %122, label %119

119:                                              ; preds = %115
  %120 = getelementptr inbounds %"class.std::ctype", %"class.std::ctype"* %112, i64 0, i32 9, i64 10
  %121 = load i8, i8* %120, align 1, !tbaa !25
  br label %128

122:                                              ; preds = %115
  call void @_ZNKSt5ctypeIcE13_M_widen_initEv(%"class.std::ctype"* nonnull align 8 dereferenceable(570) %112)
  %123 = bitcast %"class.std::ctype"* %112 to i8 (%"class.std::ctype"*, i8)***
  %124 = load i8 (%"class.std::ctype"*, i8)**, i8 (%"class.std::ctype"*, i8)*** %123, align 8, !tbaa !17
  %125 = getelementptr inbounds i8 (%"class.std::ctype"*, i8)*, i8 (%"class.std::ctype"*, i8)** %124, i64 6
  %126 = load i8 (%"class.std::ctype"*, i8)*, i8 (%"class.std::ctype"*, i8)** %125, align 8
  %127 = call signext i8 %126(%"class.std::ctype"* nonnull align 8 dereferenceable(570) %112, i8 signext 10)
  br label %128

128:                                              ; preds = %119, %122
  %129 = phi i8 [ %121, %119 ], [ %127, %122 ]
  %130 = call nonnull align 8 dereferenceable(8) %"class.std::basic_ostream"* @_ZNSo3putEc(%"class.std::basic_ostream"* nonnull align 8 dereferenceable(8) %102, i8 signext %129)
  %131 = call nonnull align 8 dereferenceable(8) %"class.std::basic_ostream"* @_ZNSo5flushEv(%"class.std::basic_ostream"* nonnull align 8 dereferenceable(8) %130)
  br label %11

132:                                              ; preds = %13
  call void @llvm.lifetime.end.p0i8(i64 80, i8* nonnull %2) #8
  ret i32 0
}

; Function Attrs: argmemonly mustprogress nofree nosync nounwind willreturn
declare void @llvm.lifetime.start.p0i8(i64 immarg, i8* nocapture) #4

declare nonnull align 8 dereferenceable(16) %"class.std::basic_istream"* @_ZNSirsERi(%"class.std::basic_istream"* nonnull align 8 dereferenceable(16), i32* nonnull align 4 dereferenceable(4)) local_unnamed_addr #0

declare nonnull align 8 dereferenceable(8) %"class.std::basic_ostream"* @_ZNSolsEi(%"class.std::basic_ostream"* nonnull align 8 dereferenceable(8), i32) local_unnamed_addr #0

; Function Attrs: argmemonly mustprogress nofree nosync nounwind willreturn
declare void @llvm.lifetime.end.p0i8(i64 immarg, i8* nocapture) #4

declare nonnull align 8 dereferenceable(8) %"class.std::basic_ostream"* @_ZNSo3putEc(%"class.std::basic_ostream"* nonnull align 8 dereferenceable(8), i8 signext) local_unnamed_addr #0

declare nonnull align 8 dereferenceable(8) %"class.std::basic_ostream"* @_ZNSo5flushEv(%"class.std::basic_ostream"* nonnull align 8 dereferenceable(8)) local_unnamed_addr #0

; Function Attrs: noreturn
declare void @_ZSt16__throw_bad_castv() local_unnamed_addr #5

declare void @_ZNKSt5ctypeIcE13_M_widen_initEv(%"class.std::ctype"* nonnull align 8 dereferenceable(570)) local_unnamed_addr #0

; Function Attrs: sspstrong uwtable
define internal void @_GLOBAL__sub_I_504.cpp() #6 section ".text.startup" {
  tail call void @_ZNSt8ios_base4InitC1Ev(%"class.std::ios_base::Init"* nonnull align 1 dereferenceable(1) @_ZStL8__ioinit)
  %1 = tail call i32 @__cxa_atexit(void (i8*)* bitcast (void (%"class.std::ios_base::Init"*)* @_ZNSt8ios_base4InitD1Ev to void (i8*)*), i8* getelementptr inbounds (%"class.std::ios_base::Init", %"class.std::ios_base::Init"* @_ZStL8__ioinit, i64 0, i32 0), i8* nonnull @__dso_handle) #8
  ret void
}

; Function Attrs: nofree nosync nounwind readnone willreturn
declare i32 @llvm.vector.reduce.add.v4i32(<4 x i32>) #7


!llvm.module.flags = !{!0, !1, !2, !3}
!llvm.ident = !{!4}

!0 = !{i32 1, !"wchar_size", i32 4}
!1 = !{i32 7, !"PIC Level", i32 2}
!2 = !{i32 7, !"PIE Level", i32 2}
!3 = !{i32 7, !"uwtable", i32 1}
!4 = !{!"clang version 13.0.0"}
!5 = !{!6, !6, i64 0}
!6 = !{!"int", !7, i64 0}
!7 = !{!"omnipotent char", !8, i64 0}
!8 = !{!"Simple C++ TBAA"}
!9 = distinct !{!9, !10}
!10 = !{!"llvm.loop.mustprogress"}
!11 = distinct !{!11, !10}
!12 = distinct !{!12, !10, !13}
!13 = !{!"llvm.loop.isvectorized", i32 1}
!14 = distinct !{!14, !10, !15, !13}
!15 = !{!"llvm.loop.unroll.runtime.disable"}
!16 = distinct !{!16, !10}
!17 = !{!18, !18, i64 0}
!18 = !{!"vtable pointer", !8, i64 0}
!19 = !{!20, !21, i64 240}
!20 = !{!"_ZTSSt9basic_iosIcSt11char_traitsIcEE", !21, i64 216, !7, i64 224, !22, i64 225, !21, i64 232, !21, i64 240, !21, i64 248, !21, i64 256}
!21 = !{!"any pointer", !7, i64 0}
!22 = !{!"bool", !7, i64 0}
!23 = !{!24, !7, i64 56}
!24 = !{!"_ZTSSt5ctypeIcE", !21, i64 16, !22, i64 24, !21, i64 32, !21, i64 40, !21, i64 48, !7, i64 56, !7, i64 57, !7, i64 313, !7, i64 569}
!25 = !{!7, !7, i64 0}
